target datalayout = "e-m:e-p270:32:32-p271:32:32-p272:64:64-i64:64-i128:128-f80:128-n8:16:32:64-S128"
target triple = "x86_64-pc-linux-gnu"

@.str = private unnamed_addr constant [5 x i8] c"none\00", align 1
@.str.1 = private unnamed_addr constant [5 x i8] c"gzip\00", align 1

; Function Attrs: nounwind uwtable
define void @parse_compress_options(ptr noundef %0, ptr noundef %1, ptr noundef %2) #0 {
  %4 = alloca ptr, align 8
  %5 = alloca ptr, align 8
  %6 = alloca ptr, align 8
  %7 = alloca ptr, align 8
  %8 = alloca ptr, align 8
  %9 = alloca i64, align 8
  %10 = alloca i32, align 4
  %11 = alloca ptr, align 8
  store ptr %0, ptr %4, align 8
  store ptr %1, ptr %5, align 8
  store ptr %2, ptr %6, align 8
  call void @llvm.lifetime.start.p0(i64 8, ptr %7) #7
  call void @llvm.lifetime.start.p0(i64 8, ptr %8) #7
  call void @llvm.lifetime.start.p0(i64 8, ptr %9) #7
  %12 = load ptr, ptr %4, align 8
  %13 = call i64 @strtol(ptr noundef %12, ptr noundef %8, i32 noundef 10) #7
  store i64 %13, ptr %9, align 8
  %14 = load ptr, ptr %8, align 8
  %15 = load i8, ptr %14, align 1
  %16 = sext i8 %15 to i32
  %17 = icmp eq i32 %16, 0
  br i1 %17, label %18, label %32

18:                                               ; preds = %3
  %19 = load i64, ptr %9, align 8
  %20 = icmp eq i64 %19, 0
  br i1 %20, label %21, label %25

21:                                               ; preds = %18
  %22 = call ptr @pstrdup(ptr noundef @.str)
  %23 = load ptr, ptr %5, align 8
  store ptr %22, ptr %23, align 8
  %24 = load ptr, ptr %6, align 8
  store ptr null, ptr %24, align 8
  br label %31

25:                                               ; preds = %18
  %26 = call ptr @pstrdup(ptr noundef @.str.1)
  %27 = load ptr, ptr %5, align 8
  store ptr %26, ptr %27, align 8
  %28 = load ptr, ptr %4, align 8
  %29 = call ptr @pstrdup(ptr noundef %28)
  %30 = load ptr, ptr %6, align 8
  store ptr %29, ptr %30, align 8
  br label %31

31:                                               ; preds = %25, %21
  store i32 1, ptr %10, align 4
  br label %71

32:                                               ; preds = %3
  %33 = load ptr, ptr %4, align 8
  %34 = call ptr @strchr(ptr noundef %33, i32 noundef 58) #6
  store ptr %34, ptr %7, align 8
  %35 = load ptr, ptr %7, align 8
  %36 = icmp eq ptr %35, null
  br i1 %36, label %37, label %42

37:                                               ; preds = %32
  %38 = load ptr, ptr %4, align 8
  %39 = call ptr @pstrdup(ptr noundef %38)
  %40 = load ptr, ptr %5, align 8
  store ptr %39, ptr %40, align 8
  %41 = load ptr, ptr %6, align 8
  store ptr null, ptr %41, align 8
  br label %70

42:                                               ; preds = %32
  call void @llvm.lifetime.start.p0(i64 8, ptr %11) #7
  %43 = load ptr, ptr %7, align 8
  %44 = load ptr, ptr %4, align 8
  %45 = ptrtoint ptr %43 to i64
  %46 = ptrtoint ptr %44 to i64
  %47 = sub i64 %45, %46
  %48 = add i64 %47, 1
  %49 = call ptr @palloc(i64 noundef %48)
  store ptr %49, ptr %11, align 8
  %50 = load ptr, ptr %11, align 8
  %51 = load ptr, ptr %4, align 8
  %52 = load ptr, ptr %7, align 8
  %53 = load ptr, ptr %4, align 8
  %54 = ptrtoint ptr %52 to i64
  %55 = ptrtoint ptr %53 to i64
  %56 = sub i64 %54, %55
  call void @llvm.memcpy.p0.p0.i64(ptr align 1 %50, ptr align 1 %51, i64 %56, i1 false)
  %57 = load ptr, ptr %11, align 8
  %58 = load ptr, ptr %7, align 8
  %59 = load ptr, ptr %4, align 8
  %60 = ptrtoint ptr %58 to i64
  %61 = ptrtoint ptr %59 to i64
  %62 = sub i64 %60, %61
  %63 = getelementptr inbounds i8, ptr %57, i64 %62
  store i8 0, ptr %63, align 1
  %64 = load ptr, ptr %11, align 8
  %65 = load ptr, ptr %5, align 8
  store ptr %64, ptr %65, align 8
  %66 = load ptr, ptr %7, align 8
  %67 = getelementptr inbounds i8, ptr %66, i64 1
  %68 = call ptr @pstrdup(ptr noundef %67)
  %69 = load ptr, ptr %6, align 8
  store ptr %68, ptr %69, align 8
  call void @llvm.lifetime.end.p0(i64 8, ptr %11) #7
  br label %70

70:                                               ; preds = %42, %37
  store i32 0, ptr %10, align 4
  br label %71

71:                                               ; preds = %70, %31
  call void @llvm.lifetime.end.p0(i64 8, ptr %9) #7
  call void @llvm.lifetime.end.p0(i64 8, ptr %8) #7
  call void @llvm.lifetime.end.p0(i64 8, ptr %7) #7
  %72 = load i32, ptr %10, align 4
  switch i32 %72, label %74 [
    i32 0, label %73
    i32 1, label %73
  ]

73:                                               ; preds = %71, %71
  ret void

74:                                               ; preds = %71
  unreachable
}