; Function Attrs: nounwind uwtable
define void @parse_compress_options(ptr noundef %0, ptr noundef writeonly captures(none) initializes((0, 8)) %1, ptr noundef writeonly captures(none) initializes((0, 8)) %2) local_unnamed_addr #3 {
  %4 = alloca ptr, align 8
  call void @llvm.lifetime.start.p0(i64 8, ptr nonnull %4) #9
  %5 = call i64 @strtol(ptr noundef %0, ptr noundef nonnull %4, i32 noundef 10) #9
  %6 = load ptr, ptr %4, align 8
  %7 = load i8, ptr %6, align 1
  %8 = icmp eq i8 %7, 0
  br i1 %8, label %9, label %16

9:                                                ; preds = %3
  %10 = icmp eq i64 %5, 0
  br i1 %10, label %11, label %13

11:                                               ; preds = %9
  %12 = tail call ptr @pstrdup(ptr noundef nonnull @.str) #9
  store ptr %12, ptr %1, align 8
  br label %30

13:                                               ; preds = %9
  %14 = tail call ptr @pstrdup(ptr noundef nonnull @.str.1) #9
  store ptr %14, ptr %1, align 8
  %15 = tail call ptr @pstrdup(ptr noundef %0) #9
  br label %30

16:                                               ; preds = %3
  %17 = tail call ptr @strchr(ptr noundef nonnull dereferenceable(1) %0, i32 noundef 58) #8
  %18 = icmp eq ptr %17, null
  br i1 %18, label %19, label %21

19:                                               ; preds = %16
  %20 = tail call ptr @pstrdup(ptr noundef nonnull %0) #9
  store ptr %20, ptr %1, align 8
  br label %30

21:                                               ; preds = %16
  %22 = ptrtoint ptr %17 to i64
  %23 = ptrtoint ptr %0 to i64
  %24 = sub i64 %22, %23
  %25 = add i64 %24, 1
  %26 = tail call ptr @palloc(i64 noundef %25) #9
  tail call void @llvm.memcpy.p0.p0.i64(ptr align 1 %26, ptr nonnull align 1 %0, i64 %24, i1 false)
  %27 = getelementptr inbounds i8, ptr %26, i64 %24
  store i8 0, ptr %27, align 1
  store ptr %26, ptr %1, align 8
  %28 = getelementptr inbounds nuw i8, ptr %17, i64 1
  %29 = tail call ptr @pstrdup(ptr noundef nonnull %28) #9
  br label %30

30:                                               ; preds = %19, %21, %11, %13
  %storemerge25 = phi ptr [ %15, %13 ], [ null, %11 ], [ %29, %21 ], [ null, %19 ]
  store ptr %storemerge25, ptr %2, align 8
  call void @llvm.lifetime.end.p0(i64 8, ptr nonnull %4) #9
  ret void
}